; Function Attrs: mustprogress uwtable
define range(i64 57599, -16711680) i64 @_ZN6duckdb20ParquetIntToTimeNsTZERKl(ptr noundef nonnull readonly align 8 captures(none) dereferenceable(8) %0) local_unnamed_addr #1 {
  %.val = load i64, ptr %0, align 8, !tbaa !7
  %2 = icmp eq i64 %.val, 86400000000000
  br i1 %2, label %_ZN6duckdbL15ParquetWrapTimeIlEET_RKS1_S1_.exit, label %3

3:                                                ; preds = %1
  %4 = srem i64 %.val, 86400000000000
  %isneg.i = icmp slt i64 %4, 0
  %5 = select i1 %isneg.i, i64 86400000000000, i64 0
  %6 = add nsw i64 %5, %4
  br label %_ZN6duckdbL15ParquetWrapTimeIlEET_RKS1_S1_.exit

_ZN6duckdbL15ParquetWrapTimeIlEET_RKS1_S1_.exit:  ; preds = %1, %3
  %.0.i = phi i64 [ %6, %3 ], [ 86400000000000, %1 ]
  %7 = tail call i64 @_ZN6duckdb4Time10FromTimeNsEl(i64 noundef %.0.i)
  %8 = shl i64 %7, 24
  %9 = or disjoint i64 %8, 57599
  ret i64 %9
}